ARM GAS  /var/folders/hl/1d1wzyz53356d4mprrtz7cz00000gn/T//ccb02Zyq.s 			page 1


   1              		.cpu cortex-m3
   2              		.eabi_attribute 20, 1
   3              		.eabi_attribute 21, 1
   4              		.eabi_attribute 23, 3
   5              		.eabi_attribute 24, 1
   6              		.eabi_attribute 25, 1
   7              		.eabi_attribute 26, 1
   8              		.eabi_attribute 30, 1
   9              		.eabi_attribute 34, 1
  10              		.eabi_attribute 18, 4
  11              		.file	"main.c"
  12              		.text
  13              	.Ltext0:
  14              		.cfi_sections	.debug_frame
  15              		.section	.text.MX_GPIO_Init,"ax",%progbits
  16              		.align	1
  17              		.syntax unified
  18              		.thumb
  19              		.thumb_func
  20              		.fpu softvfp
  22              	MX_GPIO_Init:
  23              	.LFB68:
  24              		.file 1 "Src/main.c"
   1:Src/main.c    **** 
   2:Src/main.c    **** /**
   3:Src/main.c    ****   ******************************************************************************
   4:Src/main.c    ****   * @file           : main.c
   5:Src/main.c    ****   * @brief          : Main program body
   6:Src/main.c    ****   ******************************************************************************
   7:Src/main.c    ****   ** This notice applies to any and all portions of this file
   8:Src/main.c    ****   * that are not between comment pairs USER CODE BEGIN and
   9:Src/main.c    ****   * USER CODE END. Other portions of this file, whether 
  10:Src/main.c    ****   * inserted by the user or by software development tools
  11:Src/main.c    ****   * are owned by their respective copyright owners.
  12:Src/main.c    ****   *
  13:Src/main.c    ****   * COPYRIGHT(c) 2018 STMicroelectronics
  14:Src/main.c    ****   *
  15:Src/main.c    ****   * Redistribution and use in source and binary forms, with or without modification,
  16:Src/main.c    ****   * are permitted provided that the following conditions are met:
  17:Src/main.c    ****   *   1. Redistributions of source code must retain the above copyright notice,
  18:Src/main.c    ****   *      this list of conditions and the following disclaimer.
  19:Src/main.c    ****   *   2. Redistributions in binary form must reproduce the above copyright notice,
  20:Src/main.c    ****   *      this list of conditions and the following disclaimer in the documentation
  21:Src/main.c    ****   *      and/or other materials provided with the distribution.
  22:Src/main.c    ****   *   3. Neither the name of STMicroelectronics nor the names of its contributors
  23:Src/main.c    ****   *      may be used to endorse or promote products derived from this software
  24:Src/main.c    ****   *      without specific prior written permission.
  25:Src/main.c    ****   *
  26:Src/main.c    ****   * THIS SOFTWARE IS PROVIDED BY THE COPYRIGHT HOLDERS AND CONTRIBUTORS "AS IS"
  27:Src/main.c    ****   * AND ANY EXPRESS OR IMPLIED WARRANTIES, INCLUDING, BUT NOT LIMITED TO, THE
  28:Src/main.c    ****   * IMPLIED WARRANTIES OF MERCHANTABILITY AND FITNESS FOR A PARTICULAR PURPOSE ARE
  29:Src/main.c    ****   * DISCLAIMED. IN NO EVENT SHALL THE COPYRIGHT HOLDER OR CONTRIBUTORS BE LIABLE
  30:Src/main.c    ****   * FOR ANY DIRECT, INDIRECT, INCIDENTAL, SPECIAL, EXEMPLARY, OR CONSEQUENTIAL
  31:Src/main.c    ****   * DAMAGES (INCLUDING, BUT NOT LIMITED TO, PROCUREMENT OF SUBSTITUTE GOODS OR
  32:Src/main.c    ****   * SERVICES; LOSS OF USE, DATA, OR PROFITS; OR BUSINESS INTERRUPTION) HOWEVER
  33:Src/main.c    ****   * CAUSED AND ON ANY THEORY OF LIABILITY, WHETHER IN CONTRACT, STRICT LIABILITY,
  34:Src/main.c    ****   * OR TORT (INCLUDING NEGLIGENCE OR OTHERWISE) ARISING IN ANY WAY OUT OF THE USE
ARM GAS  /var/folders/hl/1d1wzyz53356d4mprrtz7cz00000gn/T//ccb02Zyq.s 			page 2


  35:Src/main.c    ****   * OF THIS SOFTWARE, EVEN IF ADVISED OF THE POSSIBILITY OF SUCH DAMAGE.
  36:Src/main.c    ****   *
  37:Src/main.c    ****   ******************************************************************************
  38:Src/main.c    ****   */
  39:Src/main.c    **** /* Includes ------------------------------------------------------------------*/
  40:Src/main.c    **** #include "main.h"
  41:Src/main.c    **** #include "stm32f1xx_hal.h"
  42:Src/main.c    **** 
  43:Src/main.c    **** /* USER CODE BEGIN Includes */
  44:Src/main.c    **** 
  45:Src/main.c    **** /* USER CODE END Includes */
  46:Src/main.c    **** 
  47:Src/main.c    **** /* Private variables ---------------------------------------------------------*/
  48:Src/main.c    **** 
  49:Src/main.c    **** /* USER CODE BEGIN PV */
  50:Src/main.c    **** /* Private variables ---------------------------------------------------------*/
  51:Src/main.c    **** 
  52:Src/main.c    **** /* USER CODE END PV */
  53:Src/main.c    **** 
  54:Src/main.c    **** /* Private function prototypes -----------------------------------------------*/
  55:Src/main.c    **** void SystemClock_Config(void);
  56:Src/main.c    **** static void MX_GPIO_Init(void);
  57:Src/main.c    **** 
  58:Src/main.c    **** /* USER CODE BEGIN PFP */
  59:Src/main.c    **** /* Private function prototypes -----------------------------------------------*/
  60:Src/main.c    **** 
  61:Src/main.c    **** /* USER CODE END PFP */
  62:Src/main.c    **** 
  63:Src/main.c    **** /* USER CODE BEGIN 0 */
  64:Src/main.c    **** 
  65:Src/main.c    **** /* USER CODE END 0 */
  66:Src/main.c    **** 
  67:Src/main.c    **** /**
  68:Src/main.c    ****   * @brief  The application entry point.
  69:Src/main.c    ****   *
  70:Src/main.c    ****   * @retval None
  71:Src/main.c    ****   */
  72:Src/main.c    **** int main(void)
  73:Src/main.c    **** {
  74:Src/main.c    ****   /* USER CODE BEGIN 1 */
  75:Src/main.c    **** 
  76:Src/main.c    ****   /* USER CODE END 1 */
  77:Src/main.c    **** 
  78:Src/main.c    ****   /* MCU Configuration----------------------------------------------------------*/
  79:Src/main.c    **** 
  80:Src/main.c    ****   /* Reset of all peripherals, Initializes the Flash interface and the Systick. */
  81:Src/main.c    ****   HAL_Init();
  82:Src/main.c    **** 
  83:Src/main.c    ****   /* USER CODE BEGIN Init */
  84:Src/main.c    **** 
  85:Src/main.c    ****   /* USER CODE END Init */
  86:Src/main.c    **** 
  87:Src/main.c    ****   /* Configure the system clock */
  88:Src/main.c    ****   SystemClock_Config();
  89:Src/main.c    **** 
  90:Src/main.c    ****   /* USER CODE BEGIN SysInit */
  91:Src/main.c    **** 
ARM GAS  /var/folders/hl/1d1wzyz53356d4mprrtz7cz00000gn/T//ccb02Zyq.s 			page 3


  92:Src/main.c    ****   /* USER CODE END SysInit */
  93:Src/main.c    **** 
  94:Src/main.c    ****   /* Initialize all configured peripherals */
  95:Src/main.c    ****   MX_GPIO_Init();
  96:Src/main.c    ****   /* USER CODE BEGIN 2 */
  97:Src/main.c    **** 
  98:Src/main.c    ****   /* USER CODE END 2 */
  99:Src/main.c    **** 
 100:Src/main.c    ****   /* Infinite loop */
 101:Src/main.c    ****   /* USER CODE BEGIN WHILE */
 102:Src/main.c    ****   while (1)
 103:Src/main.c    ****   {
 104:Src/main.c    ****     GPIOC->BRR |= 1<<13;
 105:Src/main.c    ****     for (int i = 0; i < 1000000; ++i) asm("nop");
 106:Src/main.c    ****     GPIOC->BSRR |= 1<<13;
 107:Src/main.c    ****     for (int i = 0; i <  500000; ++i) asm("nop");
 108:Src/main.c    **** 
 109:Src/main.c    ****   /* USER CODE END WHILE */
 110:Src/main.c    **** 
 111:Src/main.c    ****   /* USER CODE BEGIN 3 */
 112:Src/main.c    **** 
 113:Src/main.c    ****   }
 114:Src/main.c    ****   /* USER CODE END 3 */
 115:Src/main.c    **** 
 116:Src/main.c    **** }
 117:Src/main.c    **** 
 118:Src/main.c    **** /**
 119:Src/main.c    ****   * @brief System Clock Configuration
 120:Src/main.c    ****   * @retval None
 121:Src/main.c    ****   */
 122:Src/main.c    **** void SystemClock_Config(void)
 123:Src/main.c    **** {
 124:Src/main.c    **** 
 125:Src/main.c    ****   RCC_OscInitTypeDef RCC_OscInitStruct;
 126:Src/main.c    ****   RCC_ClkInitTypeDef RCC_ClkInitStruct;
 127:Src/main.c    **** 
 128:Src/main.c    ****     /**Initializes the CPU, AHB and APB busses clocks 
 129:Src/main.c    ****     */
 130:Src/main.c    ****   RCC_OscInitStruct.OscillatorType = RCC_OSCILLATORTYPE_HSI;
 131:Src/main.c    ****   RCC_OscInitStruct.HSIState = RCC_HSI_ON;
 132:Src/main.c    ****   RCC_OscInitStruct.HSICalibrationValue = 16;
 133:Src/main.c    ****   RCC_OscInitStruct.PLL.PLLState = RCC_PLL_NONE;
 134:Src/main.c    ****   if (HAL_RCC_OscConfig(&RCC_OscInitStruct) != HAL_OK)
 135:Src/main.c    ****   {
 136:Src/main.c    ****     _Error_Handler(__FILE__, __LINE__);
 137:Src/main.c    ****   }
 138:Src/main.c    **** 
 139:Src/main.c    ****     /**Initializes the CPU, AHB and APB busses clocks 
 140:Src/main.c    ****     */
 141:Src/main.c    ****   RCC_ClkInitStruct.ClockType = RCC_CLOCKTYPE_HCLK|RCC_CLOCKTYPE_SYSCLK
 142:Src/main.c    ****                               |RCC_CLOCKTYPE_PCLK1|RCC_CLOCKTYPE_PCLK2;
 143:Src/main.c    ****   RCC_ClkInitStruct.SYSCLKSource = RCC_SYSCLKSOURCE_HSI;
 144:Src/main.c    ****   RCC_ClkInitStruct.AHBCLKDivider = RCC_SYSCLK_DIV1;
 145:Src/main.c    ****   RCC_ClkInitStruct.APB1CLKDivider = RCC_HCLK_DIV1;
 146:Src/main.c    ****   RCC_ClkInitStruct.APB2CLKDivider = RCC_HCLK_DIV1;
 147:Src/main.c    **** 
 148:Src/main.c    ****   if (HAL_RCC_ClockConfig(&RCC_ClkInitStruct, FLASH_LATENCY_0) != HAL_OK)
ARM GAS  /var/folders/hl/1d1wzyz53356d4mprrtz7cz00000gn/T//ccb02Zyq.s 			page 4


 149:Src/main.c    ****   {
 150:Src/main.c    ****     _Error_Handler(__FILE__, __LINE__);
 151:Src/main.c    ****   }
 152:Src/main.c    **** 
 153:Src/main.c    ****     /**Configure the Systick interrupt time 
 154:Src/main.c    ****     */
 155:Src/main.c    ****   HAL_SYSTICK_Config(HAL_RCC_GetHCLKFreq()/1000);
 156:Src/main.c    **** 
 157:Src/main.c    ****     /**Configure the Systick 
 158:Src/main.c    ****     */
 159:Src/main.c    ****   HAL_SYSTICK_CLKSourceConfig(SYSTICK_CLKSOURCE_HCLK);
 160:Src/main.c    **** 
 161:Src/main.c    ****   /* SysTick_IRQn interrupt configuration */
 162:Src/main.c    ****   HAL_NVIC_SetPriority(SysTick_IRQn, 0, 0);
 163:Src/main.c    **** }
 164:Src/main.c    **** 
 165:Src/main.c    **** /** Configure pins as 
 166:Src/main.c    ****         * Analog 
 167:Src/main.c    ****         * Input 
 168:Src/main.c    ****         * Output
 169:Src/main.c    ****         * EVENT_OUT
 170:Src/main.c    ****         * EXTI
 171:Src/main.c    **** */
 172:Src/main.c    **** static void MX_GPIO_Init(void)
 173:Src/main.c    **** {
  25              		.loc 1 173 0
  26              		.cfi_startproc
  27              		@ args = 0, pretend = 0, frame = 24
  28              		@ frame_needed = 0, uses_anonymous_args = 0
  29 0000 10B5     		push	{r4, lr}
  30              	.LCFI0:
  31              		.cfi_def_cfa_offset 8
  32              		.cfi_offset 4, -8
  33              		.cfi_offset 14, -4
  34 0002 86B0     		sub	sp, sp, #24
  35              	.LCFI1:
  36              		.cfi_def_cfa_offset 32
  37              	.LBB2:
 174:Src/main.c    **** 
 175:Src/main.c    ****   GPIO_InitTypeDef GPIO_InitStruct;
 176:Src/main.c    **** 
 177:Src/main.c    ****   /* GPIO Ports Clock Enable */
 178:Src/main.c    ****   __HAL_RCC_GPIOC_CLK_ENABLE();
  38              		.loc 1 178 0
  39 0004 0F4B     		ldr	r3, .L3
  40 0006 9A69     		ldr	r2, [r3, #24]
  41 0008 42F01002 		orr	r2, r2, #16
  42 000c 9A61     		str	r2, [r3, #24]
  43 000e 9B69     		ldr	r3, [r3, #24]
  44 0010 03F01003 		and	r3, r3, #16
  45 0014 0193     		str	r3, [sp, #4]
  46 0016 019B     		ldr	r3, [sp, #4]
  47              	.LBE2:
 179:Src/main.c    **** 
 180:Src/main.c    ****   /*Configure GPIO pin Output Level */
 181:Src/main.c    ****   HAL_GPIO_WritePin(GPIOC, GPIO_PIN_13, GPIO_PIN_RESET);
  48              		.loc 1 181 0
ARM GAS  /var/folders/hl/1d1wzyz53356d4mprrtz7cz00000gn/T//ccb02Zyq.s 			page 5


  49 0018 0B4C     		ldr	r4, .L3+4
  50 001a 0022     		movs	r2, #0
  51 001c 4FF40051 		mov	r1, #8192
  52 0020 2046     		mov	r0, r4
  53 0022 FFF7FEFF 		bl	HAL_GPIO_WritePin
  54              	.LVL0:
 182:Src/main.c    **** 
 183:Src/main.c    ****   /*Configure GPIO pin : PC13 */
 184:Src/main.c    ****   GPIO_InitStruct.Pin = GPIO_PIN_13;
  55              		.loc 1 184 0
  56 0026 4FF40053 		mov	r3, #8192
  57 002a 0293     		str	r3, [sp, #8]
 185:Src/main.c    ****   GPIO_InitStruct.Mode = GPIO_MODE_OUTPUT_PP;
  58              		.loc 1 185 0
  59 002c 0123     		movs	r3, #1
  60 002e 0393     		str	r3, [sp, #12]
 186:Src/main.c    ****   GPIO_InitStruct.Pull = GPIO_NOPULL;
  61              		.loc 1 186 0
  62 0030 0023     		movs	r3, #0
  63 0032 0493     		str	r3, [sp, #16]
 187:Src/main.c    ****   GPIO_InitStruct.Speed = GPIO_SPEED_FREQ_LOW;
  64              		.loc 1 187 0
  65 0034 0223     		movs	r3, #2
  66 0036 0593     		str	r3, [sp, #20]
 188:Src/main.c    ****   HAL_GPIO_Init(GPIOC, &GPIO_InitStruct);
  67              		.loc 1 188 0
  68 0038 02A9     		add	r1, sp, #8
  69 003a 2046     		mov	r0, r4
  70 003c FFF7FEFF 		bl	HAL_GPIO_Init
  71              	.LVL1:
 189:Src/main.c    **** 
 190:Src/main.c    **** }
  72              		.loc 1 190 0
  73 0040 06B0     		add	sp, sp, #24
  74              	.LCFI2:
  75              		.cfi_def_cfa_offset 8
  76              		@ sp needed
  77 0042 10BD     		pop	{r4, pc}
  78              	.L4:
  79              		.align	2
  80              	.L3:
  81 0044 00100240 		.word	1073876992
  82 0048 00100140 		.word	1073811456
  83              		.cfi_endproc
  84              	.LFE68:
  86              		.section	.text._Error_Handler,"ax",%progbits
  87              		.align	1
  88              		.global	_Error_Handler
  89              		.syntax unified
  90              		.thumb
  91              		.thumb_func
  92              		.fpu softvfp
  94              	_Error_Handler:
  95              	.LFB69:
 191:Src/main.c    **** 
 192:Src/main.c    **** /* USER CODE BEGIN 4 */
 193:Src/main.c    **** 
ARM GAS  /var/folders/hl/1d1wzyz53356d4mprrtz7cz00000gn/T//ccb02Zyq.s 			page 6


 194:Src/main.c    **** /* USER CODE END 4 */
 195:Src/main.c    **** 
 196:Src/main.c    **** /**
 197:Src/main.c    ****   * @brief  This function is executed in case of error occurrence.
 198:Src/main.c    ****   * @param  file: The file name as string.
 199:Src/main.c    ****   * @param  line: The line in file as a number.
 200:Src/main.c    ****   * @retval None
 201:Src/main.c    ****   */
 202:Src/main.c    **** void _Error_Handler(char *file, int line)
 203:Src/main.c    **** {
  96              		.loc 1 203 0
  97              		.cfi_startproc
  98              		@ Volatile: function does not return.
  99              		@ args = 0, pretend = 0, frame = 0
 100              		@ frame_needed = 0, uses_anonymous_args = 0
 101              		@ link register save eliminated.
 102              	.LVL2:
 103              	.L6:
 104 0000 FEE7     		b	.L6
 105              		.cfi_endproc
 106              	.LFE69:
 108              		.section	.text.SystemClock_Config,"ax",%progbits
 109              		.align	1
 110              		.global	SystemClock_Config
 111              		.syntax unified
 112              		.thumb
 113              		.thumb_func
 114              		.fpu softvfp
 116              	SystemClock_Config:
 117              	.LFB67:
 123:Src/main.c    **** 
 118              		.loc 1 123 0
 119              		.cfi_startproc
 120              		@ args = 0, pretend = 0, frame = 64
 121              		@ frame_needed = 0, uses_anonymous_args = 0
 123:Src/main.c    **** 
 122              		.loc 1 123 0
 123 0000 00B5     		push	{lr}
 124              	.LCFI3:
 125              		.cfi_def_cfa_offset 4
 126              		.cfi_offset 14, -4
 127 0002 91B0     		sub	sp, sp, #68
 128              	.LCFI4:
 129              		.cfi_def_cfa_offset 72
 130:Src/main.c    ****   RCC_OscInitStruct.HSIState = RCC_HSI_ON;
 130              		.loc 1 130 0
 131 0004 0223     		movs	r3, #2
 132 0006 0693     		str	r3, [sp, #24]
 131:Src/main.c    ****   RCC_OscInitStruct.HSICalibrationValue = 16;
 133              		.loc 1 131 0
 134 0008 0123     		movs	r3, #1
 135 000a 0A93     		str	r3, [sp, #40]
 132:Src/main.c    ****   RCC_OscInitStruct.PLL.PLLState = RCC_PLL_NONE;
 136              		.loc 1 132 0
 137 000c 1023     		movs	r3, #16
 138 000e 0B93     		str	r3, [sp, #44]
 133:Src/main.c    ****   if (HAL_RCC_OscConfig(&RCC_OscInitStruct) != HAL_OK)
ARM GAS  /var/folders/hl/1d1wzyz53356d4mprrtz7cz00000gn/T//ccb02Zyq.s 			page 7


 139              		.loc 1 133 0
 140 0010 0023     		movs	r3, #0
 141 0012 0D93     		str	r3, [sp, #52]
 134:Src/main.c    ****   {
 142              		.loc 1 134 0
 143 0014 06A8     		add	r0, sp, #24
 144 0016 FFF7FEFF 		bl	HAL_RCC_OscConfig
 145              	.LVL3:
 146 001a F0B9     		cbnz	r0, .L11
 141:Src/main.c    ****                               |RCC_CLOCKTYPE_PCLK1|RCC_CLOCKTYPE_PCLK2;
 147              		.loc 1 141 0
 148 001c 0F23     		movs	r3, #15
 149 001e 0193     		str	r3, [sp, #4]
 143:Src/main.c    ****   RCC_ClkInitStruct.AHBCLKDivider = RCC_SYSCLK_DIV1;
 150              		.loc 1 143 0
 151 0020 0021     		movs	r1, #0
 152 0022 0291     		str	r1, [sp, #8]
 144:Src/main.c    ****   RCC_ClkInitStruct.APB1CLKDivider = RCC_HCLK_DIV1;
 153              		.loc 1 144 0
 154 0024 0391     		str	r1, [sp, #12]
 145:Src/main.c    ****   RCC_ClkInitStruct.APB2CLKDivider = RCC_HCLK_DIV1;
 155              		.loc 1 145 0
 156 0026 0491     		str	r1, [sp, #16]
 146:Src/main.c    **** 
 157              		.loc 1 146 0
 158 0028 0591     		str	r1, [sp, #20]
 148:Src/main.c    ****   {
 159              		.loc 1 148 0
 160 002a 01A8     		add	r0, sp, #4
 161 002c FFF7FEFF 		bl	HAL_RCC_ClockConfig
 162              	.LVL4:
 163 0030 B8B9     		cbnz	r0, .L12
 155:Src/main.c    **** 
 164              		.loc 1 155 0
 165 0032 FFF7FEFF 		bl	HAL_RCC_GetHCLKFreq
 166              	.LVL5:
 167 0036 0D4B     		ldr	r3, .L13
 168 0038 A3FB0030 		umull	r3, r0, r3, r0
 169 003c 8009     		lsrs	r0, r0, #6
 170 003e FFF7FEFF 		bl	HAL_SYSTICK_Config
 171              	.LVL6:
 159:Src/main.c    **** 
 172              		.loc 1 159 0
 173 0042 0420     		movs	r0, #4
 174 0044 FFF7FEFF 		bl	HAL_SYSTICK_CLKSourceConfig
 175              	.LVL7:
 162:Src/main.c    **** }
 176              		.loc 1 162 0
 177 0048 0022     		movs	r2, #0
 178 004a 1146     		mov	r1, r2
 179 004c 4FF0FF30 		mov	r0, #-1
 180 0050 FFF7FEFF 		bl	HAL_NVIC_SetPriority
 181              	.LVL8:
 163:Src/main.c    **** 
 182              		.loc 1 163 0
 183 0054 11B0     		add	sp, sp, #68
 184              	.LCFI5:
ARM GAS  /var/folders/hl/1d1wzyz53356d4mprrtz7cz00000gn/T//ccb02Zyq.s 			page 8


 185              		.cfi_remember_state
 186              		.cfi_def_cfa_offset 4
 187              		@ sp needed
 188 0056 5DF804FB 		ldr	pc, [sp], #4
 189              	.L11:
 190              	.LCFI6:
 191              		.cfi_restore_state
 136:Src/main.c    ****   }
 192              		.loc 1 136 0
 193 005a 8821     		movs	r1, #136
 194 005c 0448     		ldr	r0, .L13+4
 195 005e FFF7FEFF 		bl	_Error_Handler
 196              	.LVL9:
 197              	.L12:
 150:Src/main.c    ****   }
 198              		.loc 1 150 0
 199 0062 9621     		movs	r1, #150
 200 0064 0248     		ldr	r0, .L13+4
 201 0066 FFF7FEFF 		bl	_Error_Handler
 202              	.LVL10:
 203              	.L14:
 204 006a 00BF     		.align	2
 205              	.L13:
 206 006c D34D6210 		.word	274877907
 207 0070 00000000 		.word	.LC0
 208              		.cfi_endproc
 209              	.LFE67:
 211              		.section	.text.main,"ax",%progbits
 212              		.align	1
 213              		.global	main
 214              		.syntax unified
 215              		.thumb
 216              		.thumb_func
 217              		.fpu softvfp
 219              	main:
 220              	.LFB66:
  73:Src/main.c    ****   /* USER CODE BEGIN 1 */
 221              		.loc 1 73 0
 222              		.cfi_startproc
 223              		@ args = 0, pretend = 0, frame = 0
 224              		@ frame_needed = 0, uses_anonymous_args = 0
 225 0000 08B5     		push	{r3, lr}
 226              	.LCFI7:
 227              		.cfi_def_cfa_offset 8
 228              		.cfi_offset 3, -8
 229              		.cfi_offset 14, -4
  81:Src/main.c    **** 
 230              		.loc 1 81 0
 231 0002 FFF7FEFF 		bl	HAL_Init
 232              	.LVL11:
  88:Src/main.c    **** 
 233              		.loc 1 88 0
 234 0006 FFF7FEFF 		bl	SystemClock_Config
 235              	.LVL12:
  95:Src/main.c    ****   /* USER CODE BEGIN 2 */
 236              		.loc 1 95 0
 237 000a FFF7FEFF 		bl	MX_GPIO_Init
ARM GAS  /var/folders/hl/1d1wzyz53356d4mprrtz7cz00000gn/T//ccb02Zyq.s 			page 9


 238              	.LVL13:
 239 000e 10E0     		b	.L20
 240              	.LVL14:
 241              	.L17:
 242              	.LBB3:
 105:Src/main.c    ****     GPIOC->BSRR |= 1<<13;
 243              		.loc 1 105 0 discriminator 3
 244              		.syntax unified
 245              	@ 105 "Src/main.c" 1
 246 0010 00BF     		nop
 247              	@ 0 "" 2
 248              		.thumb
 249              		.syntax unified
 250 0012 0133     		adds	r3, r3, #1
 251              	.LVL15:
 252              	.L16:
 105:Src/main.c    ****     GPIOC->BSRR |= 1<<13;
 253              		.loc 1 105 0 is_stmt 0 discriminator 1
 254 0014 0A4A     		ldr	r2, .L22
 255 0016 9342     		cmp	r3, r2
 256 0018 FADD     		ble	.L17
 257              	.LBE3:
 106:Src/main.c    ****     for (int i = 0; i <  500000; ++i) asm("nop");
 258              		.loc 1 106 0 is_stmt 1
 259 001a 0A4A     		ldr	r2, .L22+4
 260 001c 1369     		ldr	r3, [r2, #16]
 261              	.LVL16:
 262 001e 43F40053 		orr	r3, r3, #8192
 263 0022 1361     		str	r3, [r2, #16]
 264              	.LVL17:
 265              	.LBB4:
 107:Src/main.c    **** 
 266              		.loc 1 107 0
 267 0024 0023     		movs	r3, #0
 268 0026 01E0     		b	.L18
 269              	.LVL18:
 270              	.L19:
 107:Src/main.c    **** 
 271              		.loc 1 107 0 is_stmt 0 discriminator 3
 272              		.syntax unified
 273              	@ 107 "Src/main.c" 1
 274 0028 00BF     		nop
 275              	@ 0 "" 2
 276              		.thumb
 277              		.syntax unified
 278 002a 0133     		adds	r3, r3, #1
 279              	.LVL19:
 280              	.L18:
 107:Src/main.c    **** 
 281              		.loc 1 107 0 discriminator 1
 282 002c 064A     		ldr	r2, .L22+8
 283 002e 9342     		cmp	r3, r2
 284 0030 FADD     		ble	.L19
 285              	.LVL20:
 286              	.L20:
 287              	.LBE4:
 104:Src/main.c    ****     for (int i = 0; i < 1000000; ++i) asm("nop");
ARM GAS  /var/folders/hl/1d1wzyz53356d4mprrtz7cz00000gn/T//ccb02Zyq.s 			page 10


 288              		.loc 1 104 0 is_stmt 1
 289 0032 044A     		ldr	r2, .L22+4
 290 0034 5369     		ldr	r3, [r2, #20]
 291 0036 43F40053 		orr	r3, r3, #8192
 292 003a 5361     		str	r3, [r2, #20]
 293              	.LVL21:
 294              	.LBB5:
 105:Src/main.c    ****     GPIOC->BSRR |= 1<<13;
 295              		.loc 1 105 0
 296 003c 0023     		movs	r3, #0
 297 003e E9E7     		b	.L16
 298              	.L23:
 299              		.align	2
 300              	.L22:
 301 0040 3F420F00 		.word	999999
 302 0044 00100140 		.word	1073811456
 303 0048 1FA10700 		.word	499999
 304              	.LBE5:
 305              		.cfi_endproc
 306              	.LFE66:
 308              		.section	.rodata.SystemClock_Config.str1.4,"aMS",%progbits,1
 309              		.align	2
 310              	.LC0:
 311 0000 5372632F 		.ascii	"Src/main.c\000"
 311      6D61696E 
 311      2E6300
 312              		.text
 313              	.Letext0:
 314              		.file 2 "/usr/local/Caskroom/gcc-arm-embedded/7-2018-q2-update/gcc-arm-none-eabi-7-2018-q2-update/
 315              		.file 3 "/usr/local/Caskroom/gcc-arm-embedded/7-2018-q2-update/gcc-arm-none-eabi-7-2018-q2-update/
 316              		.file 4 "Drivers/CMSIS/Include/core_cm3.h"
 317              		.file 5 "Drivers/CMSIS/Device/ST/STM32F1xx/Include/system_stm32f1xx.h"
 318              		.file 6 "Drivers/CMSIS/Device/ST/STM32F1xx/Include/stm32f103xb.h"
 319              		.file 7 "/usr/local/Caskroom/gcc-arm-embedded/7-2018-q2-update/gcc-arm-none-eabi-7-2018-q2-update/
 320              		.file 8 "/usr/local/Caskroom/gcc-arm-embedded/7-2018-q2-update/gcc-arm-none-eabi-7-2018-q2-update/
 321              		.file 9 "/usr/local/Caskroom/gcc-arm-embedded/7-2018-q2-update/gcc-arm-none-eabi-7-2018-q2-update/
 322              		.file 10 "/usr/local/Caskroom/gcc-arm-embedded/7-2018-q2-update/gcc-arm-none-eabi-7-2018-q2-update
 323              		.file 11 "Drivers/STM32F1xx_HAL_Driver/Inc/stm32f1xx_hal_def.h"
 324              		.file 12 "Drivers/STM32F1xx_HAL_Driver/Inc/stm32f1xx_hal_rcc.h"
 325              		.file 13 "Drivers/STM32F1xx_HAL_Driver/Inc/stm32f1xx_hal_rcc_ex.h"
 326              		.file 14 "Drivers/STM32F1xx_HAL_Driver/Inc/stm32f1xx_hal_gpio.h"
 327              		.file 15 "Drivers/STM32F1xx_HAL_Driver/Inc/stm32f1xx_hal_cortex.h"
 328              		.file 16 "Drivers/STM32F1xx_HAL_Driver/Inc/stm32f1xx_hal.h"
ARM GAS  /var/folders/hl/1d1wzyz53356d4mprrtz7cz00000gn/T//ccb02Zyq.s 			page 11

